; Function Attrs: mustprogress uwtable
define hidden noundef nonnull align 8 dereferenceable(8) ptr @_ZN11ast_pp_util16display_expr_defERSoP4expr(ptr nocapture noundef nonnull readonly align 8 dereferenceable(1232) %this, ptr noundef nonnull align 8 dereferenceable(8) %out, ptr noundef %n) local_unnamed_addr #3 align 2 personality ptr @__gxx_personality_v0 {
entry:
  %ref.tmp = alloca %struct.mk_pp, align 8
  %m_kind.i.i = getelementptr inbounds i8, ptr %n, i64 4
  %bf.load.i.i = load i32, ptr %m_kind.i.i, align 4
  %bf.clear.i.i = and i32 %bf.load.i.i, 65535
  %cmp.i = icmp eq i32 %bf.clear.i.i, 0
  br i1 %cmp.i, label %land.lhs.true, label %if.else

land.lhs.true:                                    ; preds = %entry
  %m_num_args.i = getelementptr inbounds i8, ptr %n, i64 24
  %0 = load i32, ptr %m_num_args.i, align 8
  %cmp = icmp eq i32 %0, 0
  br i1 %cmp, label %if.then, label %if.else

if.then:                                          ; preds = %land.lhs.true
  %1 = load ptr, ptr %this, align 8
  call void @_ZN11mk_ismt2_ppC2EP3astR11ast_managerjjPKc(ptr noundef nonnull align 8 dereferenceable(48) %ref.tmp, ptr noundef nonnull %n, ptr noundef nonnull align 8 dereferenceable(976) %1, i32 noundef 0, i32 noundef 0, ptr noundef null)
  %call4 = invoke noundef nonnull align 8 dereferenceable(8) ptr @_ZlsRSoRK11mk_ismt2_pp(ptr noundef nonnull align 8 dereferenceable(8) %out, ptr noundef nonnull align 8 dereferenceable(48) %ref.tmp)
          to label %invoke.cont unwind label %lpad

invoke.cont:                                      ; preds = %if.then
  %m_empty.i.i = getelementptr inbounds i8, ptr %ref.tmp, i64 16
  call void @_ZN10params_refD1Ev(ptr noundef nonnull align 8 dereferenceable(8) %m_empty.i.i) #14
  br label %return

lpad:                                             ; preds = %if.then
  %2 = landingpad { ptr, i32 }
          cleanup
  %m_empty.i.i5 = getelementptr inbounds i8, ptr %ref.tmp, i64 16
  call void @_ZN10params_refD1Ev(ptr noundef nonnull align 8 dereferenceable(8) %m_empty.i.i5) #14
  resume { ptr, i32 } %2

if.else:                                          ; preds = %land.lhs.true, %entry
  %call5 = tail call noundef nonnull align 8 dereferenceable(8) ptr @_ZStlsISt11char_traitsIcEERSt13basic_ostreamIcT_ES5_PKc(ptr noundef nonnull align 8 dereferenceable(8) %out, ptr noundef nonnull @.str.7)
  %3 = load i32, ptr %n, align 4
  %call7 = tail call noundef nonnull align 8 dereferenceable(8) ptr @_ZNSolsEj(ptr noundef nonnull align 8 dereferenceable(8) %call5, i32 noundef %3)
  br label %return

return:                                           ; preds = %if.else, %invoke.cont
  %retval.0 = phi ptr [ %call4, %invoke.cont ], [ %call7, %if.else ]
  ret ptr %retval.0
}